#include <math.h>
#include <stdio.h>
#include <stdlib.h>
#include <string.h>
#include <iostream>
using namespace std;

//***********************************
//* ????2.cpp                   *
//* ?? 1000012747                 *
//* ???????????          *
//***********************************
int main()
{
	char str[100]={' '};      //??????????????????
	int i,l;                  //??????i??????l
	cin.getline(str,100,'\n');
	l=strlen(str);
	for(i=0;i<l;i++)
	{
		if (str[i]!=' ')
			cout<<str[i];     //?????????????
		else if ((str[i+1]!=' ')&&(str[i-1]!=' '))    //?????????????????????
			cout<<str[i];
		else if ((str[i+1]==' ')&&(str[i-1]!=' '))    //?????????????????????????
			cout<<str[i];
	}
	return 0;
}